target datalayout = "e-m:e-p270:32:32-p271:32:32-p272:64:64-i64:64-i128:128-f80:128-n8:16:32:64-S128"
target triple = "x86_64-pc-linux-gnu"

%struct.pm_buffer_t = type { i64, i64, ptr }

; Function Attrs: nounwind sspstrong uwtable
define hidden zeroext i1 @pm_buffer_init_capacity(ptr noundef %0, i64 noundef %1) #0 {
  %3 = alloca ptr, align 8
  %4 = alloca i64, align 8
  store ptr %0, ptr %3, align 8, !tbaa !7
  store i64 %1, ptr %4, align 8, !tbaa !11
  %5 = load ptr, ptr %3, align 8, !tbaa !7
  %6 = getelementptr inbounds nuw %struct.pm_buffer_t, ptr %5, i32 0, i32 0
  store i64 0, ptr %6, align 8, !tbaa !13
  %7 = load i64, ptr %4, align 8, !tbaa !11
  %8 = load ptr, ptr %3, align 8, !tbaa !7
  %9 = getelementptr inbounds nuw %struct.pm_buffer_t, ptr %8, i32 0, i32 1
  store i64 %7, ptr %9, align 8, !tbaa !16
  %10 = load i64, ptr %4, align 8, !tbaa !11
  %11 = call noalias ptr @malloc(i64 noundef %10) #12
  %12 = load ptr, ptr %3, align 8, !tbaa !7
  %13 = getelementptr inbounds nuw %struct.pm_buffer_t, ptr %12, i32 0, i32 2
  store ptr %11, ptr %13, align 8, !tbaa !17
  %14 = load ptr, ptr %3, align 8, !tbaa !7
  %15 = getelementptr inbounds nuw %struct.pm_buffer_t, ptr %14, i32 0, i32 2
  %16 = load ptr, ptr %15, align 8, !tbaa !17
  %17 = icmp ne ptr %16, null
  ret i1 %17
}

; Function Attrs: nounwind sspstrong uwtable
define hidden zeroext i1 @pm_buffer_init(ptr noundef %0) #0 {
  %2 = alloca ptr, align 8
  store ptr %0, ptr %2, align 8, !tbaa !7
  %3 = load ptr, ptr %2, align 8, !tbaa !7
  %4 = call zeroext i1 @pm_buffer_init_capacity(ptr noundef %3, i64 noundef 1024)
  ret i1 %4
}