; Function Attrs: mustprogress nofree nounwind sspstrong willreturn memory(argmem: write, inaccessiblemem: readwrite) uwtable
define hidden noundef zeroext i1 @pm_buffer_init(ptr noundef writeonly captures(none) initializes((0, 24)) %0) local_unnamed_addr #1 {
  store i64 0, ptr %0, align 8, !tbaa !7
  %2 = getelementptr inbounds nuw i8, ptr %0, i64 8
  store i64 1024, ptr %2, align 8, !tbaa !14
  %3 = tail call noalias dereferenceable_or_null(1024) ptr @malloc(i64 noundef 1024) #17
  %4 = getelementptr inbounds nuw i8, ptr %0, i64 16
  store ptr %3, ptr %4, align 8, !tbaa !15
  %5 = icmp ne ptr %3, null
  ret i1 %5
}